target datalayout = "e-m:e-p270:32:32-p271:32:32-p272:64:64-i64:64-i128:128-f80:128-n8:16:32:64-S128"
target triple = "x86_64-pc-linux-gnu"

%struct.cimd_parameter_t = type { ptr, ptr, ptr }
%struct._packet_info = type { ptr, ptr, i32, i32, %struct.nstime_t, %struct.nstime_t, %struct.nstime_t, i8, ptr, ptr, ptr, ptr, %struct._address, %struct._address, %struct._address, %struct._address, %struct._address, %struct._address, i32, ptr, i8, [3 x i8], %struct.anon, i32, i32, i32, i32, ptr, i8, ptr, ptr, i16, i16, i32, i32, i16, i32, i32, ptr, ptr, ptr, i8, i8, i16, i16, i16, i32, i16, i16, ptr, ptr, ptr, ptr, ptr, i32, i32 }
%struct.nstime_t = type { i64, i32 }
%struct._address = type { i32, i32, ptr, ptr }
%struct.anon = type { i8, [3 x i8] }

@hf_cimd_opcode_indicator = internal global i32 0, align 4
@hf_cimd_packet_number_indicator = internal global i32 0, align 4
@hf_cimd_checksum_indicator = internal global i32 0, align 4
@ett_cimd = internal global i32 0, align 4
@vals_hdr_PC = internal global [38 x %struct.cimd_parameter_t] zeroinitializer, align 16
@.str.97 = private unnamed_addr constant [5 x i8] c"CIMD\00", align 1
@proto_cimd = internal global i32 0, align 4
@.str.278 = private unnamed_addr constant [13 x i8] c"Unknown (%d)\00", align 1
@.str.279 = private unnamed_addr constant [8 x i8] c"%s - %s\00", align 1
@.str.280 = private unnamed_addr constant [17 x i8] c"invalid checksum\00", align 1

; Function Attrs: null_pointer_is_valid sspstrong uwtable
define internal void @dissect_cimd_operation(ptr noundef %0, ptr noundef %1, i32 noundef %2, i16 noundef zeroext %3, i8 noundef zeroext %4, i8 noundef zeroext %5, i8 noundef zeroext %6) #0 {
  %8 = alloca ptr, align 8
  %9 = alloca ptr, align 8
  %10 = alloca i32, align 4
  %11 = alloca i16, align 2
  %12 = alloca i8, align 1
  %13 = alloca i8, align 1
  %14 = alloca i8, align 1
  %15 = alloca i32, align 4
  %16 = alloca i32, align 4
  %17 = alloca i32, align 4
  %18 = alloca i32, align 4
  %19 = alloca ptr, align 8
  %20 = alloca ptr, align 8
  store ptr %0, ptr %8, align 8
  store ptr %1, ptr %9, align 8
  store i32 %2, ptr %10, align 4
  store i16 %3, ptr %11, align 2
  store i8 %4, ptr %12, align 1
  store i8 %5, ptr %13, align 1
  store i8 %6, ptr %14, align 1
  call void @llvm.lifetime.start.p0(i64 4, ptr %15) #4
  store i32 0, ptr %15, align 4
  call void @llvm.lifetime.start.p0(i64 4, ptr %16) #4
  call void @llvm.lifetime.start.p0(i64 4, ptr %17) #4
  store i32 0, ptr %17, align 4
  call void @llvm.lifetime.start.p0(i64 4, ptr %18) #4
  store i32 0, ptr %18, align 4
  call void @llvm.lifetime.start.p0(i64 8, ptr %19) #4
  call void @llvm.lifetime.start.p0(i64 8, ptr %20) #4
  %21 = load ptr, ptr %9, align 8
  %22 = load i32, ptr @proto_cimd, align 4
  %23 = load ptr, ptr %8, align 8
  %24 = load i32, ptr %10, align 4
  %25 = add i32 %24, 1
  %26 = call ptr @proto_tree_add_item(ptr noundef %21, i32 noundef %22, ptr noundef %23, i32 noundef 0, i32 noundef %25, i32 noundef 0)
  store ptr %26, ptr %19, align 8
  %27 = load ptr, ptr %19, align 8
  %28 = load i32, ptr @ett_cimd, align 4
  %29 = call ptr @proto_item_add_subtree(ptr noundef %27, i32 noundef %28)
  store ptr %29, ptr %20, align 8
  %30 = load ptr, ptr %20, align 8
  %31 = load i32, ptr @hf_cimd_opcode_indicator, align 4
  %32 = load ptr, ptr %8, align 8
  %33 = load i8, ptr %13, align 1
  %34 = zext i8 %33 to i32
  %35 = call ptr @proto_tree_add_uint(ptr noundef %30, i32 noundef %31, ptr noundef %32, i32 noundef 1, i32 noundef 2, i32 noundef %34)
  %36 = load ptr, ptr %20, align 8
  %37 = load i32, ptr @hf_cimd_packet_number_indicator, align 4
  %38 = load ptr, ptr %8, align 8
  %39 = load i8, ptr %14, align 1
  %40 = zext i8 %39 to i32
  %41 = call ptr @proto_tree_add_uint(ptr noundef %36, i32 noundef %37, ptr noundef %38, i32 noundef 4, i32 noundef 3, i32 noundef %40)
  store i32 7, ptr %17, align 4
  br label %42

42:                                               ; preds = %89, %7
  %43 = load i32, ptr %17, align 4
  %44 = load i32, ptr %10, align 4
  %45 = icmp slt i32 %43, %44
  br i1 %45, label %46, label %52

46:                                               ; preds = %42
  %47 = load ptr, ptr %8, align 8
  %48 = load i32, ptr %17, align 4
  %49 = call zeroext i8 @tvb_get_uint8(ptr noundef %47, i32 noundef %48)
  %50 = zext i8 %49 to i32
  %51 = icmp eq i32 %50, 9
  br label %52

52:                                               ; preds = %46, %42
  %53 = phi i1 [ false, %42 ], [ %51, %46 ]
  br i1 %53, label %54, label %91

54:                                               ; preds = %52
  %55 = load ptr, ptr %8, align 8
  %56 = load i32, ptr %17, align 4
  %57 = add i32 %56, 1
  %58 = load i32, ptr %10, align 4
  %59 = call i32 @tvb_find_uint8(ptr noundef %55, i32 noundef %57, i32 noundef %58, i8 noundef zeroext 9)
  store i32 %59, ptr %18, align 4
  %60 = load i32, ptr %18, align 4
  %61 = icmp eq i32 %60, -1
  br i1 %61, label %62, label %63

62:                                               ; preds = %54
  br label %91

63:                                               ; preds = %54
  %64 = call ptr @wmem_packet_scope()
  %65 = load ptr, ptr %8, align 8
  %66 = load i32, ptr %17, align 4
  %67 = add i32 %66, 1
  %68 = call ptr @tvb_get_string_enc(ptr noundef %64, ptr noundef %65, i32 noundef %67, i32 noundef 3, i32 noundef 0)
  %69 = call i64 @strtoul(ptr noundef %68, ptr noundef null, i32 noundef 10) #4
  %70 = trunc i64 %69 to i32
  store i32 %70, ptr %15, align 4
  %71 = load i32, ptr %15, align 4
  %72 = call ptr @try_val_to_str_idx(i32 noundef %71, ptr noundef @cimd_vals_PC, ptr noundef %16)
  %73 = load i32, ptr %16, align 4
  %74 = icmp ne i32 %73, -1
  br i1 %74, label %75, label %89

75:                                               ; preds = %63
  %76 = load ptr, ptr %9, align 8
  %77 = icmp ne ptr %76, null
  br i1 %77, label %78, label %89

78:                                               ; preds = %75
  %79 = load i32, ptr %16, align 4
  %80 = sext i32 %79 to i64
  %81 = getelementptr [38 x %struct.cimd_parameter_t], ptr @vals_hdr_PC, i64 0, i64 %80
  %82 = getelementptr inbounds nuw %struct.cimd_parameter_t, ptr %81, i32 0, i32 0
  %83 = load ptr, ptr %82, align 8
  %84 = load ptr, ptr %8, align 8
  %85 = load ptr, ptr %20, align 8
  %86 = load i32, ptr %16, align 4
  %87 = load i32, ptr %17, align 4
  %88 = load i32, ptr %18, align 4
  call void %83(ptr noundef %84, ptr noundef %85, i32 noundef %86, i32 noundef %87, i32 noundef %88)
  br label %89

89:                                               ; preds = %78, %75, %63
  %90 = load i32, ptr %18, align 4
  store i32 %90, ptr %17, align 4
  br label %42, !llvm.loop !12

91:                                               ; preds = %62, %52
  %92 = load i8, ptr %12, align 1
  %93 = zext i8 %92 to i32
  %94 = icmp ne i32 %93, 9
  br i1 %94, label %95, label %104

95:                                               ; preds = %91
  %96 = load ptr, ptr %20, align 8
  %97 = load i32, ptr @hf_cimd_checksum_indicator, align 4
  %98 = load ptr, ptr %8, align 8
  %99 = load i32, ptr %10, align 4
  %100 = sub i32 %99, 2
  %101 = load i16, ptr %11, align 2
  %102 = zext i16 %101 to i32
  %103 = call ptr @proto_tree_add_uint(ptr noundef %96, i32 noundef %97, ptr noundef %98, i32 noundef %100, i32 noundef 2, i32 noundef %102)
  br label %104

104:                                              ; preds = %95, %91
  call void @llvm.lifetime.end.p0(i64 8, ptr %20) #4
  call void @llvm.lifetime.end.p0(i64 8, ptr %19) #4
  call void @llvm.lifetime.end.p0(i64 4, ptr %18) #4
  call void @llvm.lifetime.end.p0(i64 4, ptr %17) #4
  call void @llvm.lifetime.end.p0(i64 4, ptr %16) #4
  call void @llvm.lifetime.end.p0(i64 4, ptr %15) #4
  ret void
}

; Function Attrs: null_pointer_is_valid sspstrong uwtable
define internal i32 @dissect_cimd(ptr noundef %0, ptr noundef %1, ptr noundef %2, ptr noundef %3) #0 {
  %5 = alloca i32, align 4
  %6 = alloca ptr, align 8
  %7 = alloca ptr, align 8
  %8 = alloca ptr, align 8
  %9 = alloca ptr, align 8
  %10 = alloca i8, align 1
  %11 = alloca i8, align 1
  %12 = alloca i16, align 2
  %13 = alloca i16, align 2
  %14 = alloca i32, align 4
  %15 = alloca i32, align 4
  %16 = alloca i8, align 1
  %17 = alloca i8, align 1
  %18 = alloca i8, align 1
  %19 = alloca i8, align 1
  %20 = alloca i32, align 4
  store ptr %0, ptr %6, align 8
  store ptr %1, ptr %7, align 8
  store ptr %2, ptr %8, align 8
  store ptr %3, ptr %9, align 8
  call void @llvm.lifetime.start.p0(i64 1, ptr %10) #4
  call void @llvm.lifetime.start.p0(i64 1, ptr %11) #4
  call void @llvm.lifetime.start.p0(i64 2, ptr %12) #4
  store i16 0, ptr %12, align 2
  call void @llvm.lifetime.start.p0(i64 2, ptr %13) #4
  store i16 0, ptr %13, align 2
  call void @llvm.lifetime.start.p0(i64 4, ptr %14) #4
  store i32 0, ptr %14, align 4
  call void @llvm.lifetime.start.p0(i64 4, ptr %15) #4
  store i32 0, ptr %15, align 4
  call void @llvm.lifetime.start.p0(i64 1, ptr %16) #4
  store i8 1, ptr %16, align 1
  call void @llvm.lifetime.start.p0(i64 1, ptr %17) #4
  call void @llvm.lifetime.start.p0(i64 1, ptr %18) #4
  call void @llvm.lifetime.start.p0(i64 1, ptr %19) #4
  %21 = load ptr, ptr %6, align 8
  %22 = call i32 @tvb_find_uint8(ptr noundef %21, i32 noundef 7, i32 noundef -1, i8 noundef zeroext 3)
  store i32 %22, ptr %14, align 4
  %23 = load i32, ptr %14, align 4
  %24 = icmp eq i32 %23, -1
  br i1 %24, label %25, label %26

25:                                               ; preds = %4
  store i32 0, ptr %5, align 4
  store i32 1, ptr %20, align 4
  br label %139

26:                                               ; preds = %4
  %27 = load ptr, ptr %7, align 8
  %28 = getelementptr inbounds nuw %struct._packet_info, ptr %27, i32 0, i32 51
  %29 = load ptr, ptr %28, align 8
  %30 = load ptr, ptr %6, align 8
  %31 = call ptr @tvb_get_string_enc(ptr noundef %29, ptr noundef %30, i32 noundef 1, i32 noundef 2, i32 noundef 0)
  %32 = call i64 @strtoul(ptr noundef %31, ptr noundef null, i32 noundef 10) #4
  %33 = trunc i64 %32 to i8
  store i8 %33, ptr %10, align 1
  %34 = load ptr, ptr %7, align 8
  %35 = getelementptr inbounds nuw %struct._packet_info, ptr %34, i32 0, i32 51
  %36 = load ptr, ptr %35, align 8
  %37 = load ptr, ptr %6, align 8
  %38 = call ptr @tvb_get_string_enc(ptr noundef %36, ptr noundef %37, i32 noundef 4, i32 noundef 3, i32 noundef 0)
  %39 = call i64 @strtoul(ptr noundef %38, ptr noundef null, i32 noundef 10) #4
  %40 = trunc i64 %39 to i8
  store i8 %40, ptr %11, align 1
  %41 = load ptr, ptr %6, align 8
  %42 = load i32, ptr %14, align 4
  %43 = sub i32 %42, 1
  %44 = call zeroext i8 @tvb_get_uint8(ptr noundef %41, i32 noundef %43)
  store i8 %44, ptr %17, align 1
  %45 = load ptr, ptr %6, align 8
  %46 = load i32, ptr %14, align 4
  %47 = sub i32 %46, 2
  %48 = call zeroext i8 @tvb_get_uint8(ptr noundef %45, i32 noundef %47)
  store i8 %48, ptr %18, align 1
  %49 = load ptr, ptr %6, align 8
  %50 = load i32, ptr %14, align 4
  %51 = sub i32 %50, 3
  %52 = call zeroext i8 @tvb_get_uint8(ptr noundef %49, i32 noundef %51)
  store i8 %52, ptr %19, align 1
  %53 = load i8, ptr %17, align 1
  %54 = zext i8 %53 to i32
  %55 = icmp eq i32 %54, 9
  br i1 %55, label %56, label %57

56:                                               ; preds = %26
  br label %109

57:                                               ; preds = %26
  %58 = load i8, ptr %17, align 1
  %59 = zext i8 %58 to i32
  %60 = icmp ne i32 %59, 9
  br i1 %60, label %61, label %107

61:                                               ; preds = %57
  %62 = load i8, ptr %18, align 1
  %63 = zext i8 %62 to i32
  %64 = icmp ne i32 %63, 9
  br i1 %64, label %65, label %107

65:                                               ; preds = %61
  %66 = load i8, ptr %19, align 1
  %67 = zext i8 %66 to i32
  %68 = icmp eq i32 %67, 9
  br i1 %68, label %69, label %107

69:                                               ; preds = %65
  %70 = load ptr, ptr %7, align 8
  %71 = getelementptr inbounds nuw %struct._packet_info, ptr %70, i32 0, i32 51
  %72 = load ptr, ptr %71, align 8
  %73 = load ptr, ptr %6, align 8
  %74 = load i32, ptr %14, align 4
  %75 = sub i32 %74, 2
  %76 = call ptr @tvb_get_string_enc(ptr noundef %72, ptr noundef %73, i32 noundef %75, i32 noundef 2, i32 noundef 0)
  %77 = call i64 @strtoul(ptr noundef %76, ptr noundef null, i32 noundef 16) #4
  %78 = trunc i64 %77 to i16
  store i16 %78, ptr %12, align 2
  br label %79

79:                                               ; preds = %97, %69
  %80 = load i32, ptr %15, align 4
  %81 = load i32, ptr %14, align 4
  %82 = sub i32 %81, 2
  %83 = icmp slt i32 %80, %82
  br i1 %83, label %84, label %100

84:                                               ; preds = %79
  %85 = load ptr, ptr %6, align 8
  %86 = load i32, ptr %15, align 4
  %87 = call zeroext i8 @tvb_get_uint8(ptr noundef %85, i32 noundef %86)
  %88 = zext i8 %87 to i32
  %89 = load i16, ptr %13, align 2
  %90 = zext i16 %89 to i32
  %91 = add i32 %90, %88
  %92 = trunc i32 %91 to i16
  store i16 %92, ptr %13, align 2
  %93 = load i16, ptr %13, align 2
  %94 = zext i16 %93 to i32
  %95 = and i32 %94, 255
  %96 = trunc i32 %95 to i16
  store i16 %96, ptr %13, align 2
  br label %97

97:                                               ; preds = %84
  %98 = load i32, ptr %15, align 4
  %99 = add i32 %98, 1
  store i32 %99, ptr %15, align 4
  br label %79, !llvm.loop !8

100:                                              ; preds = %79
  %101 = load i16, ptr %12, align 2
  %102 = zext i16 %101 to i32
  %103 = load i16, ptr %13, align 2
  %104 = zext i16 %103 to i32
  %105 = icmp eq i32 %102, %104
  %106 = zext i1 %105 to i8
  store i8 %106, ptr %16, align 1
  br label %108

107:                                              ; preds = %65, %61, %57
  store i8 0, ptr %16, align 1
  br label %108

108:                                              ; preds = %107, %100
  br label %109

109:                                              ; preds = %108, %56
  %110 = load ptr, ptr %7, align 8
  %111 = getelementptr inbounds nuw %struct._packet_info, ptr %110, i32 0, i32 1
  %112 = load ptr, ptr %111, align 8
  call void @col_set_str(ptr noundef %112, i32 noundef 35, ptr noundef @.str.97)
  %113 = load i8, ptr %16, align 1, !range !9, !noundef !10
  %114 = trunc i8 %113 to i1
  br i1 %114, label %115, label %122

115:                                              ; preds = %109
  %116 = load ptr, ptr %7, align 8
  %117 = getelementptr inbounds nuw %struct._packet_info, ptr %116, i32 0, i32 1
  %118 = load ptr, ptr %117, align 8
  %119 = load i8, ptr %10, align 1
  %120 = zext i8 %119 to i32
  %121 = call ptr @val_to_str(i32 noundef %120, ptr noundef @vals_hdr_OC, ptr noundef @.str.278)
  call void @col_add_str(ptr noundef %118, i32 noundef 25, ptr noundef %121)
  br label %129

122:                                              ; preds = %109
  %123 = load ptr, ptr %7, align 8
  %124 = getelementptr inbounds nuw %struct._packet_info, ptr %123, i32 0, i32 1
  %125 = load ptr, ptr %124, align 8
  %126 = load i8, ptr %10, align 1
  %127 = zext i8 %126 to i32
  %128 = call ptr @val_to_str(i32 noundef %127, ptr noundef @vals_hdr_OC, ptr noundef @.str.278)
  call void (ptr, i32, ptr, ...) @col_add_fstr(ptr noundef %125, i32 noundef 25, ptr noundef @.str.279, ptr noundef %128, ptr noundef @.str.280)
  br label %129

129:                                              ; preds = %122, %115
  %130 = load ptr, ptr %6, align 8
  %131 = load ptr, ptr %8, align 8
  %132 = load i32, ptr %14, align 4
  %133 = load i16, ptr %12, align 2
  %134 = load i8, ptr %17, align 1
  %135 = load i8, ptr %10, align 1
  %136 = load i8, ptr %11, align 1
  call void @dissect_cimd_operation(ptr noundef %130, ptr noundef %131, i32 noundef %132, i16 noundef zeroext %133, i8 noundef zeroext %134, i8 noundef zeroext %135, i8 noundef zeroext %136)
  %137 = load ptr, ptr %6, align 8
  %138 = call i32 @tvb_captured_length(ptr noundef %137)
  store i32 %138, ptr %5, align 4
  store i32 1, ptr %20, align 4
  br label %139

139:                                              ; preds = %129, %25
  call void @llvm.lifetime.end.p0(i64 1, ptr %19) #4
  call void @llvm.lifetime.end.p0(i64 1, ptr %18) #4
  call void @llvm.lifetime.end.p0(i64 1, ptr %17) #4
  call void @llvm.lifetime.end.p0(i64 1, ptr %16) #4
  call void @llvm.lifetime.end.p0(i64 4, ptr %15) #4
  call void @llvm.lifetime.end.p0(i64 4, ptr %14) #4
  call void @llvm.lifetime.end.p0(i64 2, ptr %13) #4
  call void @llvm.lifetime.end.p0(i64 2, ptr %12) #4
  call void @llvm.lifetime.end.p0(i64 1, ptr %11) #4
  call void @llvm.lifetime.end.p0(i64 1, ptr %10) #4
  %140 = load i32, ptr %5, align 4
  ret i32 %140
}