; Function Attrs: null_pointer_is_valid sspstrong uwtable
define internal i32 @dissect_cimd(ptr noundef %0, ptr noundef readonly captures(none) %1, ptr noundef %2, ptr readnone captures(none) %3) #0 {
  %5 = alloca i32, align 4
  %6 = tail call i32 @tvb_find_uint8(ptr noundef %0, i32 noundef 7, i32 noundef -1, i8 noundef zeroext 3)
  %7 = icmp eq i32 %6, -1
  br i1 %7, label %103, label %8

8:                                                ; preds = %4
  %9 = getelementptr inbounds nuw i8, ptr %1, i64 408
  %10 = load ptr, ptr %9, align 8
  %11 = tail call ptr @tvb_get_string_enc(ptr noundef %10, ptr noundef %0, i32 noundef 1, i32 noundef 2, i32 noundef 0)
  %12 = tail call i64 @strtoul(ptr noundef captures(none) %11, ptr noundef null, i32 noundef 10) #4
  %13 = trunc i64 %12 to i32
  %14 = load ptr, ptr %9, align 8
  %15 = tail call ptr @tvb_get_string_enc(ptr noundef %14, ptr noundef %0, i32 noundef 4, i32 noundef 3, i32 noundef 0)
  %16 = tail call i64 @strtoul(ptr noundef captures(none) %15, ptr noundef null, i32 noundef 10) #4
  %17 = trunc i64 %16 to i32
  %18 = add i32 %6, -1
  %19 = tail call zeroext i8 @tvb_get_uint8(ptr noundef %0, i32 noundef %18)
  %20 = add i32 %6, -2
  %21 = tail call zeroext i8 @tvb_get_uint8(ptr noundef %0, i32 noundef %20)
  %22 = add i32 %6, -3
  %23 = tail call zeroext i8 @tvb_get_uint8(ptr noundef %0, i32 noundef %22)
  %24 = icmp eq i8 %19, 9
  br i1 %24, label %.thread, label %27

.thread:                                          ; preds = %8
  %25 = getelementptr inbounds nuw i8, ptr %1, i64 8
  %26 = load ptr, ptr %25, align 8
  tail call void @col_set_str(ptr noundef %26, i32 noundef 35, ptr noundef nonnull @.str.97)
  br label %44

27:                                               ; preds = %8
  %28 = icmp ne i8 %21, 9
  %29 = icmp eq i8 %23, 9
  %or.cond5 = select i1 %28, i1 %29, i1 false
  br i1 %or.cond5, label %32, label %.thread56

.thread56:                                        ; preds = %27
  %30 = getelementptr inbounds nuw i8, ptr %1, i64 8
  %31 = load ptr, ptr %30, align 8
  tail call void @col_set_str(ptr noundef %31, i32 noundef 35, ptr noundef nonnull @.str.97)
  br label %49

32:                                               ; preds = %27
  %33 = load ptr, ptr %9, align 8
  %34 = tail call ptr @tvb_get_string_enc(ptr noundef %33, ptr noundef %0, i32 noundef %20, i32 noundef 2, i32 noundef 0)
  %35 = tail call i64 @strtoul(ptr noundef captures(none) %34, ptr noundef null, i32 noundef 16) #4
  %36 = trunc i64 %35 to i16
  %37 = icmp sgt i32 %20, 0
  br i1 %37, label %.lr.ph, label %._crit_edge

.lr.ph:                                           ; preds = %32, %.lr.ph
  %.04862 = phi i8 [ %.narrow, %.lr.ph ], [ 0, %32 ]
  %.05061 = phi i32 [ %39, %.lr.ph ], [ 0, %32 ]
  %38 = tail call zeroext i8 @tvb_get_uint8(ptr noundef %0, i32 noundef %.05061)
  %.narrow = add i8 %38, %.04862
  %39 = add nuw nsw i32 %.05061, 1
  %exitcond.not = icmp eq i32 %39, %20
  br i1 %exitcond.not, label %._crit_edge.loopexit, label %.lr.ph, !llvm.loop !8

._crit_edge.loopexit:                             ; preds = %.lr.ph
  %40 = zext i8 %.narrow to i16
  br label %._crit_edge

._crit_edge:                                      ; preds = %._crit_edge.loopexit, %32
  %.048.lcssa = phi i16 [ 0, %32 ], [ %40, %._crit_edge.loopexit ]
  %41 = icmp eq i16 %.048.lcssa, %36
  %42 = getelementptr inbounds nuw i8, ptr %1, i64 8
  %43 = load ptr, ptr %42, align 8
  tail call void @col_set_str(ptr noundef %43, i32 noundef 35, ptr noundef nonnull @.str.97)
  br i1 %41, label %44, label %49

44:                                               ; preds = %.thread, %._crit_edge
  %45 = phi ptr [ %25, %.thread ], [ %42, %._crit_edge ]
  %.04755 = phi i16 [ 0, %.thread ], [ %36, %._crit_edge ]
  %46 = load ptr, ptr %45, align 8
  %47 = and i32 %13, 255
  %48 = tail call ptr @val_to_str(i32 noundef %47, ptr noundef nonnull @vals_hdr_OC, ptr noundef nonnull @.str.278)
  tail call void @col_add_str(ptr noundef %46, i32 noundef 25, ptr noundef %48)
  br label %54

49:                                               ; preds = %.thread56, %._crit_edge
  %50 = phi ptr [ %30, %.thread56 ], [ %42, %._crit_edge ]
  %.04759 = phi i16 [ 0, %.thread56 ], [ %36, %._crit_edge ]
  %51 = load ptr, ptr %50, align 8
  %52 = and i32 %13, 255
  %53 = tail call ptr @val_to_str(i32 noundef %52, ptr noundef nonnull @vals_hdr_OC, ptr noundef nonnull @.str.278)
  tail call void (ptr, i32, ptr, ...) @col_add_fstr(ptr noundef %51, i32 noundef 25, ptr noundef nonnull @.str.279, ptr noundef %53, ptr noundef nonnull @.str.280)
  br label %54

54:                                               ; preds = %49, %44
  %.pre-phi = phi i32 [ %52, %49 ], [ %47, %44 ]
  %.04754 = phi i16 [ %.04759, %49 ], [ %.04755, %44 ]
  call void @llvm.lifetime.start.p0(i64 4, ptr nonnull %5) #4
  %55 = load i32, ptr @proto_cimd, align 4
  %56 = add nuw i32 %6, 1
  %57 = tail call ptr @proto_tree_add_item(ptr noundef %2, i32 noundef %55, ptr noundef %0, i32 noundef 0, i32 noundef %56, i32 noundef 0)
  %58 = load i32, ptr @ett_cimd, align 4
  %59 = tail call ptr @proto_item_add_subtree(ptr noundef %57, i32 noundef %58)
  %60 = load i32, ptr @hf_cimd_opcode_indicator, align 4
  %61 = tail call ptr @proto_tree_add_uint(ptr noundef %59, i32 noundef %60, ptr noundef %0, i32 noundef 1, i32 noundef 2, i32 noundef %.pre-phi)
  %62 = load i32, ptr @hf_cimd_packet_number_indicator, align 4
  %63 = and i32 %17, 255
  %64 = tail call ptr @proto_tree_add_uint(ptr noundef %59, i32 noundef %62, ptr noundef %0, i32 noundef 4, i32 noundef 3, i32 noundef %63)
  %65 = icmp sgt i32 %6, 7
  br i1 %65, label %.lr.ph.i, label %.critedge.i

.lr.ph.i:                                         ; preds = %54
  %.not38.i = icmp eq ptr %2, null
  br i1 %.not38.i, label %.lr.ph.split.us.i, label %.lr.ph.split.i

.lr.ph.split.us.i:                                ; preds = %.lr.ph.i, %72
  %.035.us.i = phi i32 [ %70, %72 ], [ 7, %.lr.ph.i ]
  %66 = call zeroext i8 @tvb_get_uint8(ptr noundef %0, i32 noundef %.035.us.i)
  %67 = icmp eq i8 %66, 9
  br i1 %67, label %68, label %.critedge.i

68:                                               ; preds = %.lr.ph.split.us.i
  %69 = add nuw i32 %.035.us.i, 1
  %70 = call i32 @tvb_find_uint8(ptr noundef %0, i32 noundef %69, i32 noundef range(i32 0, -1) %6, i8 noundef zeroext 9)
  %71 = icmp eq i32 %70, -1
  br i1 %71, label %.critedge.i, label %72

72:                                               ; preds = %68
  %73 = call ptr @wmem_packet_scope()
  %74 = call ptr @tvb_get_string_enc(ptr noundef %73, ptr noundef %0, i32 noundef %69, i32 noundef 3, i32 noundef 0)
  %75 = call i64 @strtoul(ptr noundef captures(none) %74, ptr noundef null, i32 noundef 10) #4
  %76 = trunc i64 %75 to i32
  %77 = call ptr @try_val_to_str_idx(i32 noundef %76, ptr noundef nonnull @cimd_vals_PC, ptr noundef nonnull %5)
  %78 = icmp slt i32 %70, %6
  br i1 %78, label %.lr.ph.split.us.i, label %.critedge.i, !llvm.loop !9

.lr.ph.split.i:                                   ; preds = %.lr.ph.i, %96
  %.035.i = phi i32 [ %83, %96 ], [ 7, %.lr.ph.i ]
  %79 = call zeroext i8 @tvb_get_uint8(ptr noundef %0, i32 noundef %.035.i)
  %80 = icmp eq i8 %79, 9
  br i1 %80, label %81, label %.critedge.i

81:                                               ; preds = %.lr.ph.split.i
  %82 = add nuw i32 %.035.i, 1
  %83 = call i32 @tvb_find_uint8(ptr noundef %0, i32 noundef %82, i32 noundef range(i32 0, -1) %6, i8 noundef zeroext 9)
  %84 = icmp eq i32 %83, -1
  br i1 %84, label %.critedge.i, label %85

85:                                               ; preds = %81
  %86 = call ptr @wmem_packet_scope()
  %87 = call ptr @tvb_get_string_enc(ptr noundef %86, ptr noundef %0, i32 noundef %82, i32 noundef 3, i32 noundef 0)
  %88 = call i64 @strtoul(ptr noundef captures(none) %87, ptr noundef null, i32 noundef 10) #4
  %89 = trunc i64 %88 to i32
  %90 = call ptr @try_val_to_str_idx(i32 noundef %89, ptr noundef nonnull @cimd_vals_PC, ptr noundef nonnull %5)
  %91 = load i32, ptr %5, align 4
  %.not39.i = icmp eq i32 %91, -1
  br i1 %.not39.i, label %96, label %92

92:                                               ; preds = %85
  %93 = sext i32 %91 to i64
  %94 = getelementptr [38 x %struct.cimd_parameter_t], ptr @vals_hdr_PC, i64 0, i64 %93
  %95 = load ptr, ptr %94, align 8
  call void %95(ptr noundef %0, ptr noundef %59, i32 noundef %91, i32 noundef %.035.i, i32 noundef %83)
  br label %96

96:                                               ; preds = %92, %85
  %97 = icmp slt i32 %83, %6
  br i1 %97, label %.lr.ph.split.i, label %.critedge.i, !llvm.loop !9

.critedge.i:                                      ; preds = %96, %81, %.lr.ph.split.i, %72, %68, %.lr.ph.split.us.i, %54
  br i1 %24, label %dissect_cimd_operation.exit, label %98

98:                                               ; preds = %.critedge.i
  %99 = load i32, ptr @hf_cimd_checksum_indicator, align 4
  %100 = zext i16 %.04754 to i32
  %101 = call ptr @proto_tree_add_uint(ptr noundef %59, i32 noundef %99, ptr noundef %0, i32 noundef %20, i32 noundef 2, i32 noundef %100)
  br label %dissect_cimd_operation.exit

dissect_cimd_operation.exit:                      ; preds = %.critedge.i, %98
  call void @llvm.lifetime.end.p0(i64 4, ptr nonnull %5) #4
  %102 = call i32 @tvb_captured_length(ptr noundef %0)
  br label %103

103:                                              ; preds = %4, %dissect_cimd_operation.exit
  %.0 = phi i32 [ %102, %dissect_cimd_operation.exit ], [ 0, %4 ]
  ret i32 %.0
}